; Function Attrs: mustprogress uwtable
define void @_ZNK5faiss7IndexPQ22hamming_distance_tableElPKfPi(ptr noundef nonnull align 8 dereferenceable(404) %0, i64 noundef %1, ptr noundef %2, ptr noundef %3) local_unnamed_addr #1 align 2 personality ptr @__gxx_personality_v0 {
  %5 = getelementptr inbounds nuw i8, ptr %0, i64 72
  %6 = getelementptr inbounds nuw i8, ptr %0, i64 88
  %7 = load i64, ptr %6, align 8, !tbaa !90
  %8 = mul i64 %7, %1
  %9 = tail call noalias noundef nonnull ptr @_Znam(i64 noundef %8) #33
  invoke void @_ZNK5faiss16ProductQuantizer13compute_codesEPKfPhm(ptr noundef nonnull align 8 dereferenceable(216) %5, ptr noundef %2, ptr noundef nonnull %9, i64 noundef %1)
          to label %10 unwind label %_ZNSt10unique_ptrIA_hSt14default_deleteIS0_EED2Ev.exit9

10:                                               ; preds = %4
  %11 = getelementptr inbounds nuw i8, ptr %0, i64 48
  %12 = load ptr, ptr %11, align 8, !tbaa !57
  %13 = getelementptr inbounds nuw i8, ptr %0, i64 16
  %14 = load i64, ptr %13, align 8, !tbaa !33
  %15 = load i64, ptr %6, align 8, !tbaa !90
  invoke void @_ZN5faiss8hammingsEPKhS1_mmmPi(ptr noundef nonnull %9, ptr noundef %12, i64 noundef %1, i64 noundef %14, i64 noundef %15, ptr noundef %3)
          to label %_ZNSt10unique_ptrIA_hSt14default_deleteIS0_EED2Ev.exit unwind label %_ZNSt10unique_ptrIA_hSt14default_deleteIS0_EED2Ev.exit9

_ZNSt10unique_ptrIA_hSt14default_deleteIS0_EED2Ev.exit: ; preds = %10
  tail call void @_ZdaPv(ptr noundef nonnull %9) #31
  ret void

_ZNSt10unique_ptrIA_hSt14default_deleteIS0_EED2Ev.exit9: ; preds = %10, %4
  %16 = landingpad { ptr, i32 }
          cleanup
  tail call void @_ZdaPv(ptr noundef nonnull %9) #31
  resume { ptr, i32 } %16
}